target datalayout = "e-m:e-p270:32:32-p271:32:32-p272:64:64-i64:64-i128:128-f80:128-n8:16:32:64-S128"
target triple = "x86_64-pc-linux-gnu"

%struct.CodedBitstreamContext = type { ptr, ptr, ptr, ptr, i32, i32, i32, ptr, ptr, ptr, ptr, i64 }
%struct.CodedBitstreamAV1Context = type { ptr, ptr, ptr, i32, ptr, ptr, i64, i32, i32, i32, i32, i32, i32, i32, i32, i32, i32, i32, i32, i32, i32, i32, i32, [8 x i32], [8 x i32], [8 x %struct.AV1ReferenceFrameState], i32, i32, [8 x i8], [2 x i8], [8 x [8 x i8]], [8 x [8 x i16]] }
%struct.AV1ReferenceFrameState = type { i32, i32, i32, i32, i32, i32, i32, i32, i32, i32, i32, i32, [8 x i32], [8 x i8], [2 x i8], [8 x [8 x i8]], [8 x [8 x i16]] }
%struct.AV1RawSequenceHeader = type { i8, i8, i8, i8, i8, i8, i8, %struct.AV1RawTimingInfo, %struct.AV1RawDecoderModelInfo, [32 x i16], [32 x i8], [32 x i8], [32 x i8], [32 x i32], [32 x i32], [32 x i8], [32 x i8], [32 x i8], i8, i8, i16, i16, i8, i8, i8, i8, i8, i8, i8, i8, i8, i8, i8, i8, i8, i8, i8, i8, i8, i8, i8, i8, i8, %struct.AV1RawColorConfig, i8 }
%struct.AV1RawTimingInfo = type { i32, i32, i8, i32 }
%struct.AV1RawDecoderModelInfo = type { i8, i32, i8, i8 }
%struct.AV1RawColorConfig = type { i8, i8, i8, i8, i8, i8, i8, i8, i8, i8, i8, i8 }
%struct.AV1RawFrameHeader = type { i8, i8, i32, i32, i8, i8, i8, i8, i8, i8, i8, i32, i8, i8, i8, [32 x i32], i8, i16, i16, i8, i8, i8, i16, i16, [7 x i8], i8, i8, [8 x i8], i8, i8, i8, [7 x i8], [7 x i32], i8, i8, i8, i8, i8, i8, i8, i8, i8, [64 x i8], [64 x i8], [64 x i8], [64 x i8], i16, i8, i16, i16, i8, i8, i8, i8, i8, i8, i8, i8, i8, i8, i8, i8, i8, i8, i8, [8 x [8 x i8]], [8 x [8 x i16]], i8, i8, i8, i8, i8, [4 x i8], i8, i8, i8, [8 x i8], [8 x i8], [2 x i8], [2 x i8], i8, i8, [8 x i8], [8 x i8], [8 x i8], [8 x i8], [3 x i8], i8, i8, i8, i8, i8, i8, i8, [8 x i8], [8 x i8], [8 x i8], [8 x [6 x i32]], %struct.AV1RawFilmGrainParams }
%struct.AV1RawFilmGrainParams = type { i8, i16, i8, i8, i8, [14 x i8], [14 x i8], i8, i8, [10 x i8], [10 x i8], i8, [10 x i8], [10 x i8], i8, i8, [24 x i8], [25 x i8], [25 x i8], i8, i8, i8, i8, i16, i8, i8, i16, i8, i8 }

@.str.208 = private unnamed_addr constant [11 x i8] c"lr_type[i]\00", align 1
@.str.209 = private unnamed_addr constant [14 x i8] c"lr_unit_shift\00", align 1
@.str.210 = private unnamed_addr constant [12 x i8] c"lr_uv_shift\00", align 1

; Function Attrs: nounwind uwtable
define internal i32 @cbs_av1_read_lr_params(ptr noundef %0, ptr noundef %1, ptr noundef %2) #0 {
  %4 = alloca i32, align 4
  %5 = alloca ptr, align 8
  %6 = alloca ptr, align 8
  %7 = alloca ptr, align 8
  %8 = alloca ptr, align 8
  %9 = alloca ptr, align 8
  %10 = alloca i32, align 4
  %11 = alloca i32, align 4
  %12 = alloca i32, align 4
  %13 = alloca i32, align 4
  %14 = alloca i32, align 4
  %15 = alloca i32, align 4
  %16 = alloca [2 x i32], align 4
  %17 = alloca i32, align 4
  %18 = alloca i32, align 4
  %19 = alloca i32, align 4
  store ptr %0, ptr %5, align 8, !tbaa !4
  store ptr %1, ptr %6, align 8, !tbaa !103
  store ptr %2, ptr %7, align 8, !tbaa !159
  call void @llvm.lifetime.start.p0(i64 8, ptr %8) #8
  %20 = load ptr, ptr %5, align 8, !tbaa !4
  %21 = getelementptr inbounds nuw %struct.CodedBitstreamContext, ptr %20, i32 0, i32 2
  %22 = load ptr, ptr %21, align 8, !tbaa !36
  store ptr %22, ptr %8, align 8, !tbaa !37
  call void @llvm.lifetime.start.p0(i64 8, ptr %9) #8
  %23 = load ptr, ptr %8, align 8, !tbaa !37
  %24 = getelementptr inbounds nuw %struct.CodedBitstreamAV1Context, ptr %23, i32 0, i32 1
  %25 = load ptr, ptr %24, align 8, !tbaa !67
  store ptr %25, ptr %9, align 8, !tbaa !58
  call void @llvm.lifetime.start.p0(i64 4, ptr %10) #8
  call void @llvm.lifetime.start.p0(i64 4, ptr %11) #8
  call void @llvm.lifetime.start.p0(i64 4, ptr %12) #8
  call void @llvm.lifetime.start.p0(i64 4, ptr %13) #8
  %26 = load ptr, ptr %8, align 8, !tbaa !37
  %27 = getelementptr inbounds nuw %struct.CodedBitstreamAV1Context, ptr %26, i32 0, i32 19
  %28 = load i32, ptr %27, align 8, !tbaa !287
  %29 = icmp ne i32 %28, 0
  br i1 %29, label %41, label %30

30:                                               ; preds = %3
  %31 = load ptr, ptr %7, align 8, !tbaa !159
  %32 = getelementptr inbounds nuw %struct.AV1RawFrameHeader, ptr %31, i32 0, i32 26
  %33 = load i8, ptr %32, align 2, !tbaa !269
  %34 = zext i8 %33 to i32
  %35 = icmp ne i32 %34, 0
  br i1 %35, label %41, label %36

36:                                               ; preds = %30
  %37 = load ptr, ptr %9, align 8, !tbaa !58
  %38 = getelementptr inbounds nuw %struct.AV1RawSequenceHeader, ptr %37, i32 0, i32 42
  %39 = load i8, ptr %38, align 2, !tbaa !157
  %40 = icmp ne i8 %39, 0
  br i1 %40, label %42, label %41

41:                                               ; preds = %36, %30, %3
  store i32 0, ptr %4, align 4
  store i32 1, ptr %14, align 4
  br label %193

42:                                               ; preds = %36
  store i32 0, ptr %11, align 4, !tbaa !11
  store i32 0, ptr %10, align 4, !tbaa !11
  store i32 0, ptr %12, align 4, !tbaa !11
  br label %43

43:                                               ; preds = %91, %42
  %44 = load i32, ptr %12, align 4, !tbaa !11
  %45 = load ptr, ptr %8, align 8, !tbaa !37
  %46 = getelementptr inbounds nuw %struct.CodedBitstreamAV1Context, ptr %45, i32 0, i32 17
  %47 = load i32, ptr %46, align 8, !tbaa !211
  %48 = icmp slt i32 %44, %47
  br i1 %48, label %49, label %94

49:                                               ; preds = %43
  br label %50

50:                                               ; preds = %49
  call void @llvm.lifetime.start.p0(i64 4, ptr %15) #8
  br label %51

51:                                               ; preds = %50
  %52 = load ptr, ptr %5, align 8, !tbaa !4
  %53 = load ptr, ptr %6, align 8, !tbaa !103
  store i32 1, ptr %16, align 4, !tbaa !11
  %54 = getelementptr inbounds i32, ptr %16, i64 1
  %55 = load i32, ptr %12, align 4, !tbaa !11
  store i32 %55, ptr %54, align 4, !tbaa !11
  %56 = getelementptr inbounds [2 x i32], ptr %16, i64 0, i64 0
  %57 = call i32 @ff_cbs_read_unsigned(ptr noundef %52, ptr noundef %53, i32 noundef 2, ptr noundef @.str.208, ptr noundef %56, ptr noundef %15, i32 noundef 0, i32 noundef 3)
  store i32 %57, ptr %13, align 4, !tbaa !11
  %58 = load i32, ptr %13, align 4, !tbaa !11
  %59 = icmp slt i32 %58, 0
  br i1 %59, label %60, label %62

60:                                               ; preds = %51
  %61 = load i32, ptr %13, align 4, !tbaa !11
  store i32 %61, ptr %4, align 4
  store i32 1, ptr %14, align 4
  br label %72

62:                                               ; preds = %51
  br label %63

63:                                               ; preds = %62
  br label %64

64:                                               ; preds = %63
  %65 = load i32, ptr %15, align 4, !tbaa !11
  %66 = trunc i32 %65 to i8
  %67 = load ptr, ptr %7, align 8, !tbaa !159
  %68 = getelementptr inbounds nuw %struct.AV1RawFrameHeader, ptr %67, i32 0, i32 86
  %69 = load i32, ptr %12, align 4, !tbaa !11
  %70 = sext i32 %69 to i64
  %71 = getelementptr inbounds [3 x i8], ptr %68, i64 0, i64 %70
  store i8 %66, ptr %71, align 1, !tbaa !27
  store i32 0, ptr %14, align 4
  br label %72

72:                                               ; preds = %64, %60
  call void @llvm.lifetime.end.p0(i64 4, ptr %15) #8
  %73 = load i32, ptr %14, align 4
  switch i32 %73, label %193 [
    i32 0, label %74
  ]

74:                                               ; preds = %72
  br label %75

75:                                               ; preds = %74
  br label %76

76:                                               ; preds = %75
  %77 = load ptr, ptr %7, align 8, !tbaa !159
  %78 = getelementptr inbounds nuw %struct.AV1RawFrameHeader, ptr %77, i32 0, i32 86
  %79 = load i32, ptr %12, align 4, !tbaa !11
  %80 = sext i32 %79 to i64
  %81 = getelementptr inbounds [3 x i8], ptr %78, i64 0, i64 %80
  %82 = load i8, ptr %81, align 1, !tbaa !27
  %83 = zext i8 %82 to i32
  %84 = icmp ne i32 %83, 0
  br i1 %84, label %85, label %90

85:                                               ; preds = %76
  store i32 1, ptr %10, align 4, !tbaa !11
  %86 = load i32, ptr %12, align 4, !tbaa !11
  %87 = icmp sgt i32 %86, 0
  br i1 %87, label %88, label %89

88:                                               ; preds = %85
  store i32 1, ptr %11, align 4, !tbaa !11
  br label %89

89:                                               ; preds = %88, %85
  br label %90

90:                                               ; preds = %89, %76
  br label %91

91:                                               ; preds = %90
  %92 = load i32, ptr %12, align 4, !tbaa !11
  %93 = add nsw i32 %92, 1
  store i32 %93, ptr %12, align 4, !tbaa !11
  br label %43, !llvm.loop !356

94:                                               ; preds = %43
  %95 = load i32, ptr %10, align 4, !tbaa !11
  %96 = icmp ne i32 %95, 0
  br i1 %96, label %97, label %192

97:                                               ; preds = %94
  %98 = load ptr, ptr %9, align 8, !tbaa !58
  %99 = getelementptr inbounds nuw %struct.AV1RawSequenceHeader, ptr %98, i32 0, i32 25
  %100 = load i8, ptr %99, align 1, !tbaa !140
  %101 = icmp ne i8 %100, 0
  br i1 %101, label %102, label %124

102:                                              ; preds = %97
  br label %103

103:                                              ; preds = %102
  call void @llvm.lifetime.start.p0(i64 4, ptr %17) #8
  br label %104

104:                                              ; preds = %103
  %105 = load ptr, ptr %5, align 8, !tbaa !4
  %106 = load ptr, ptr %6, align 8, !tbaa !103
  %107 = call i32 @cbs_av1_read_increment(ptr noundef %105, ptr noundef %106, i32 noundef 1, i32 noundef 2, ptr noundef @.str.209, ptr noundef %17)
  store i32 %107, ptr %13, align 4, !tbaa !11
  %108 = load i32, ptr %13, align 4, !tbaa !11
  %109 = icmp slt i32 %108, 0
  br i1 %109, label %110, label %112

110:                                              ; preds = %104
  %111 = load i32, ptr %13, align 4, !tbaa !11
  store i32 %111, ptr %4, align 4
  store i32 1, ptr %14, align 4
  br label %119

112:                                              ; preds = %104
  br label %113

113:                                              ; preds = %112
  br label %114

114:                                              ; preds = %113
  %115 = load i32, ptr %17, align 4, !tbaa !11
  %116 = trunc i32 %115 to i8
  %117 = load ptr, ptr %7, align 8, !tbaa !159
  %118 = getelementptr inbounds nuw %struct.AV1RawFrameHeader, ptr %117, i32 0, i32 87
  store i8 %116, ptr %118, align 1, !tbaa !357
  store i32 0, ptr %14, align 4
  br label %119

119:                                              ; preds = %114, %110
  call void @llvm.lifetime.end.p0(i64 4, ptr %17) #8
  %120 = load i32, ptr %14, align 4
  switch i32 %120, label %193 [
    i32 0, label %121
  ]

121:                                              ; preds = %119
  br label %122

122:                                              ; preds = %121
  br label %123

123:                                              ; preds = %122
  br label %146

124:                                              ; preds = %97
  br label %125

125:                                              ; preds = %124
  call void @llvm.lifetime.start.p0(i64 4, ptr %18) #8
  br label %126

126:                                              ; preds = %125
  %127 = load ptr, ptr %5, align 8, !tbaa !4
  %128 = load ptr, ptr %6, align 8, !tbaa !103
  %129 = call i32 @cbs_av1_read_increment(ptr noundef %127, ptr noundef %128, i32 noundef 0, i32 noundef 2, ptr noundef @.str.209, ptr noundef %18)
  store i32 %129, ptr %13, align 4, !tbaa !11
  %130 = load i32, ptr %13, align 4, !tbaa !11
  %131 = icmp slt i32 %130, 0
  br i1 %131, label %132, label %134

132:                                              ; preds = %126
  %133 = load i32, ptr %13, align 4, !tbaa !11
  store i32 %133, ptr %4, align 4
  store i32 1, ptr %14, align 4
  br label %141

134:                                              ; preds = %126
  br label %135

135:                                              ; preds = %134
  br label %136

136:                                              ; preds = %135
  %137 = load i32, ptr %18, align 4, !tbaa !11
  %138 = trunc i32 %137 to i8
  %139 = load ptr, ptr %7, align 8, !tbaa !159
  %140 = getelementptr inbounds nuw %struct.AV1RawFrameHeader, ptr %139, i32 0, i32 87
  store i8 %138, ptr %140, align 1, !tbaa !357
  store i32 0, ptr %14, align 4
  br label %141

141:                                              ; preds = %136, %132
  call void @llvm.lifetime.end.p0(i64 4, ptr %18) #8
  %142 = load i32, ptr %14, align 4
  switch i32 %142, label %193 [
    i32 0, label %143
  ]

143:                                              ; preds = %141
  br label %144

144:                                              ; preds = %143
  br label %145

145:                                              ; preds = %144
  br label %146

146:                                              ; preds = %145, %123
  %147 = load ptr, ptr %9, align 8, !tbaa !58
  %148 = getelementptr inbounds nuw %struct.AV1RawSequenceHeader, ptr %147, i32 0, i32 43
  %149 = getelementptr inbounds nuw %struct.AV1RawColorConfig, ptr %148, i32 0, i32 8
  %150 = load i8, ptr %149, align 1, !tbaa !290
  %151 = zext i8 %150 to i32
  %152 = icmp ne i32 %151, 0
  br i1 %152, label %153, label %185

153:                                              ; preds = %146
  %154 = load ptr, ptr %9, align 8, !tbaa !58
  %155 = getelementptr inbounds nuw %struct.AV1RawSequenceHeader, ptr %154, i32 0, i32 43
  %156 = getelementptr inbounds nuw %struct.AV1RawColorConfig, ptr %155, i32 0, i32 9
  %157 = load i8, ptr %156, align 1, !tbaa !291
  %158 = zext i8 %157 to i32
  %159 = icmp ne i32 %158, 0
  br i1 %159, label %160, label %185

160:                                              ; preds = %153
  %161 = load i32, ptr %11, align 4, !tbaa !11
  %162 = icmp ne i32 %161, 0
  br i1 %162, label %163, label %185

163:                                              ; preds = %160
  br label %164

164:                                              ; preds = %163
  call void @llvm.lifetime.start.p0(i64 4, ptr %19) #8
  br label %165

165:                                              ; preds = %164
  %166 = load ptr, ptr %5, align 8, !tbaa !4
  %167 = load ptr, ptr %6, align 8, !tbaa !103
  %168 = call i32 @ff_cbs_read_simple_unsigned(ptr noundef %166, ptr noundef %167, i32 noundef 1, ptr noundef @.str.210, ptr noundef %19)
  store i32 %168, ptr %13, align 4, !tbaa !11
  %169 = load i32, ptr %13, align 4, !tbaa !11
  %170 = icmp slt i32 %169, 0
  br i1 %170, label %171, label %173

171:                                              ; preds = %165
  %172 = load i32, ptr %13, align 4, !tbaa !11
  store i32 %172, ptr %4, align 4
  store i32 1, ptr %14, align 4
  br label %180

173:                                              ; preds = %165
  br label %174

174:                                              ; preds = %173
  br label %175

175:                                              ; preds = %174
  %176 = load i32, ptr %19, align 4, !tbaa !11
  %177 = trunc i32 %176 to i8
  %178 = load ptr, ptr %7, align 8, !tbaa !159
  %179 = getelementptr inbounds nuw %struct.AV1RawFrameHeader, ptr %178, i32 0, i32 88
  store i8 %177, ptr %179, align 4, !tbaa !358
  store i32 0, ptr %14, align 4
  br label %180

180:                                              ; preds = %175, %171
  call void @llvm.lifetime.end.p0(i64 4, ptr %19) #8
  %181 = load i32, ptr %14, align 4
  switch i32 %181, label %193 [
    i32 0, label %182
  ]

182:                                              ; preds = %180
  br label %183

183:                                              ; preds = %182
  br label %184

184:                                              ; preds = %183
  br label %191

185:                                              ; preds = %160, %153, %146
  br label %186

186:                                              ; preds = %185
  %187 = load ptr, ptr %7, align 8, !tbaa !159
  %188 = getelementptr inbounds nuw %struct.AV1RawFrameHeader, ptr %187, i32 0, i32 88
  store i8 0, ptr %188, align 4, !tbaa !358
  br label %189

189:                                              ; preds = %186
  br label %190

190:                                              ; preds = %189
  br label %191

191:                                              ; preds = %190, %184
  br label %192

192:                                              ; preds = %191, %94
  store i32 0, ptr %4, align 4
  store i32 1, ptr %14, align 4
  br label %193

193:                                              ; preds = %192, %180, %141, %119, %72, %41
  call void @llvm.lifetime.end.p0(i64 4, ptr %13) #8
  call void @llvm.lifetime.end.p0(i64 4, ptr %12) #8
  call void @llvm.lifetime.end.p0(i64 4, ptr %11) #8
  call void @llvm.lifetime.end.p0(i64 4, ptr %10) #8
  call void @llvm.lifetime.end.p0(i64 8, ptr %9) #8
  call void @llvm.lifetime.end.p0(i64 8, ptr %8) #8
  %194 = load i32, ptr %4, align 4
  ret i32 %194
}