; Function Attrs: nounwind uwtable
define internal fastcc range(i32 -2147483648, 1) i32 @cbs_av1_read_lr_params(ptr noundef %0, ptr noundef nonnull %1, ptr noundef captures(none) %2) unnamed_addr #0 {
  %4 = alloca i32, align 4
  %5 = alloca [2 x i32], align 4
  %6 = alloca i32, align 4
  %7 = alloca i32, align 4
  %8 = alloca i32, align 4
  %9 = getelementptr inbounds nuw i8, ptr %0, i64 16
  %10 = load ptr, ptr %9, align 8, !tbaa !33
  %11 = getelementptr inbounds nuw i8, ptr %10, i64 8
  %12 = load ptr, ptr %11, align 8, !tbaa !60
  %13 = getelementptr inbounds nuw i8, ptr %10, i64 104
  %14 = load i32, ptr %13, align 8, !tbaa !277
  %.not = icmp eq i32 %14, 0
  br i1 %.not, label %15, label %._crit_edge.thread

15:                                               ; preds = %3
  %16 = getelementptr inbounds nuw i8, ptr %2, i64 178
  %17 = load i8, ptr %16, align 2, !tbaa !259
  %.not60 = icmp eq i8 %17, 0
  br i1 %.not60, label %18, label %._crit_edge.thread

18:                                               ; preds = %15
  %19 = getelementptr inbounds nuw i8, ptr %12, i64 574
  %20 = load i8, ptr %19, align 2, !tbaa !125
  %.not61 = icmp eq i8 %20, 0
  br i1 %.not61, label %._crit_edge.thread, label %.preheader

.preheader:                                       ; preds = %18
  %21 = getelementptr inbounds nuw i8, ptr %10, i64 96
  %22 = load i32, ptr %21, align 8, !tbaa !305
  %23 = icmp sgt i32 %22, 0
  br i1 %23, label %.lr.ph, label %._crit_edge.thread

.lr.ph:                                           ; preds = %.preheader
  %24 = getelementptr inbounds nuw i8, ptr %5, i64 4
  %25 = getelementptr inbounds nuw i8, ptr %2, i64 776
  br label %26

26:                                               ; preds = %.lr.ph, %31
  %indvars.iv = phi i64 [ 0, %.lr.ph ], [ %indvars.iv.next, %31 ]
  %.04878 = phi i32 [ 0, %.lr.ph ], [ %.149, %31 ]
  %.05077 = phi i32 [ 0, %.lr.ph ], [ %.151, %31 ]
  call void @llvm.lifetime.start.p0(i64 4, ptr nonnull %4) #8
  store i32 1, ptr %5, align 4, !tbaa !69
  %27 = trunc nuw nsw i64 %indvars.iv to i32
  store i32 %27, ptr %24, align 4, !tbaa !69
  %28 = call i32 @ff_cbs_read_unsigned(ptr noundef %0, ptr noundef nonnull %1, i32 noundef 2, ptr noundef nonnull @.str.208, ptr noundef nonnull %5, ptr noundef nonnull %4, i32 noundef 0, i32 noundef 3) #8
  %29 = icmp sgt i32 %28, -1
  br i1 %29, label %31, label %30

30:                                               ; preds = %26
  call void @llvm.lifetime.end.p0(i64 4, ptr nonnull %4) #8
  br label %._crit_edge.thread

31:                                               ; preds = %26
  %32 = load i32, ptr %4, align 4, !tbaa !69
  %33 = trunc i32 %32 to i8
  %34 = getelementptr inbounds nuw [3 x i8], ptr %25, i64 0, i64 %indvars.iv
  store i8 %33, ptr %34, align 1, !tbaa !20
  call void @llvm.lifetime.end.p0(i64 4, ptr nonnull %4) #8
  %.not65 = icmp eq i8 %33, 0
  %.not66 = icmp eq i64 %indvars.iv, 0
  %.151 = select i1 %.not65, i32 %.05077, i32 1
  %35 = or i1 %.not66, %.not65
  %.149 = select i1 %35, i32 %.04878, i32 1
  %indvars.iv.next = add nuw nsw i64 %indvars.iv, 1
  %36 = load i32, ptr %21, align 8, !tbaa !305
  %37 = sext i32 %36 to i64
  %38 = icmp slt i64 %indvars.iv.next, %37
  br i1 %38, label %26, label %._crit_edge, !llvm.loop !372

._crit_edge:                                      ; preds = %31
  %39 = icmp eq i32 %.151, 0
  %40 = icmp ne i32 %.149, 0
  br i1 %39, label %._crit_edge.thread, label %41

41:                                               ; preds = %._crit_edge
  %42 = getelementptr inbounds nuw i8, ptr %12, i64 557
  %43 = load i8, ptr %42, align 1, !tbaa !108
  %.not63 = icmp eq i8 %43, 0
  br i1 %.not63, label %51, label %44

44:                                               ; preds = %41
  call void @llvm.lifetime.start.p0(i64 4, ptr nonnull %6) #8
  %45 = call fastcc i32 @cbs_av1_read_increment(ptr noundef %0, ptr noundef %1, i32 noundef 1, i32 noundef 2, ptr noundef nonnull @.str.209, ptr noundef %6)
  %46 = icmp sgt i32 %45, -1
  br i1 %46, label %.thread69, label %50

.thread69:                                        ; preds = %44
  %47 = load i32, ptr %6, align 4, !tbaa !69
  %48 = trunc i32 %47 to i8
  %49 = getelementptr inbounds nuw i8, ptr %2, i64 779
  store i8 %48, ptr %49, align 1, !tbaa !373
  call void @llvm.lifetime.end.p0(i64 4, ptr nonnull %6) #8
  br label %58

50:                                               ; preds = %44
  call void @llvm.lifetime.end.p0(i64 4, ptr nonnull %6) #8
  br label %._crit_edge.thread

51:                                               ; preds = %41
  call void @llvm.lifetime.start.p0(i64 4, ptr nonnull %7) #8
  %52 = call fastcc i32 @cbs_av1_read_increment(ptr noundef %0, ptr noundef %1, i32 noundef 0, i32 noundef 2, ptr noundef nonnull @.str.209, ptr noundef %7)
  %53 = icmp sgt i32 %52, -1
  br i1 %53, label %.thread71, label %57

.thread71:                                        ; preds = %51
  %54 = load i32, ptr %7, align 4, !tbaa !69
  %55 = trunc i32 %54 to i8
  %56 = getelementptr inbounds nuw i8, ptr %2, i64 779
  store i8 %55, ptr %56, align 1, !tbaa !373
  call void @llvm.lifetime.end.p0(i64 4, ptr nonnull %7) #8
  br label %58

57:                                               ; preds = %51
  call void @llvm.lifetime.end.p0(i64 4, ptr nonnull %7) #8
  br label %._crit_edge.thread

58:                                               ; preds = %.thread71, %.thread69
  %59 = getelementptr inbounds nuw i8, ptr %12, i64 583
  %60 = load i8, ptr %59, align 1, !tbaa !280
  %.not64 = icmp eq i8 %60, 0
  br i1 %.not64, label %72, label %61

61:                                               ; preds = %58
  %62 = getelementptr inbounds nuw i8, ptr %12, i64 584
  %63 = load i8, ptr %62, align 1, !tbaa !281
  %64 = icmp ne i8 %63, 0
  %or.cond = select i1 %64, i1 %40, i1 false
  br i1 %or.cond, label %65, label %72

65:                                               ; preds = %61
  call void @llvm.lifetime.start.p0(i64 4, ptr nonnull %8) #8
  %66 = call i32 @ff_cbs_read_simple_unsigned(ptr noundef %0, ptr noundef nonnull %1, i32 noundef 1, ptr noundef nonnull @.str.210, ptr noundef nonnull %8) #8
  %67 = icmp sgt i32 %66, -1
  br i1 %67, label %.thread73, label %71

.thread73:                                        ; preds = %65
  %68 = load i32, ptr %8, align 4, !tbaa !69
  %69 = trunc i32 %68 to i8
  %70 = getelementptr inbounds nuw i8, ptr %2, i64 780
  store i8 %69, ptr %70, align 4, !tbaa !374
  call void @llvm.lifetime.end.p0(i64 4, ptr nonnull %8) #8
  br label %._crit_edge.thread

71:                                               ; preds = %65
  call void @llvm.lifetime.end.p0(i64 4, ptr nonnull %8) #8
  br label %._crit_edge.thread

72:                                               ; preds = %58, %61
  %73 = getelementptr inbounds nuw i8, ptr %2, i64 780
  store i8 0, ptr %73, align 4, !tbaa !374
  br label %._crit_edge.thread

._crit_edge.thread:                               ; preds = %.preheader, %._crit_edge, %72, %.thread73, %71, %57, %50, %30, %3, %15, %18
  %.052 = phi i32 [ %28, %30 ], [ %66, %71 ], [ %45, %50 ], [ %52, %57 ], [ 0, %18 ], [ 0, %15 ], [ 0, %3 ], [ 0, %.thread73 ], [ 0, %72 ], [ 0, %._crit_edge ], [ 0, %.preheader ]
  ret i32 %.052
}